target datalayout = "e-m:e-p270:32:32-p271:32:32-p272:64:64-i64:64-i128:128-f80:128-n8:16:32:64-S128"
target triple = "x86_64-pc-linux-gnu"

%struct.expert_field = type { i32, i32 }

@.str.282 = private unnamed_addr constant [1 x i8] zeroinitializer, align 1
@ei_ansi_a_extraneous_data = internal global %struct.expert_field zeroinitializer, align 4

; Function Attrs: null_pointer_is_valid sspstrong uwtable
define internal void @dtap_progress(ptr noundef %0, ptr noundef %1, ptr noundef %2, i32 noundef %3, i32 noundef %4, ptr noundef %5) #1 {
  %7 = alloca ptr, align 8
  %8 = alloca ptr, align 8
  %9 = alloca ptr, align 8
  %10 = alloca i32, align 4
  %11 = alloca i32, align 4
  %12 = alloca ptr, align 8
  %13 = alloca i32, align 4
  %14 = alloca i32, align 4
  %15 = alloca i32, align 4
  %16 = alloca i32, align 4
  store ptr %0, ptr %7, align 8
  store ptr %1, ptr %8, align 8
  store ptr %2, ptr %9, align 8
  store i32 %3, ptr %10, align 4
  store i32 %4, ptr %11, align 4
  store ptr %5, ptr %12, align 8
  call void @llvm.lifetime.start.p0(i64 4, ptr %13) #8
  call void @llvm.lifetime.start.p0(i64 4, ptr %14) #8
  call void @llvm.lifetime.start.p0(i64 4, ptr %15) #8
  %17 = load i32, ptr %10, align 4
  store i32 %17, ptr %13, align 4
  %18 = load i32, ptr %11, align 4
  store i32 %18, ptr %15, align 4
  %19 = load ptr, ptr %7, align 8
  %20 = load ptr, ptr %8, align 8
  %21 = load ptr, ptr %9, align 8
  %22 = load i32, ptr %13, align 4
  %23 = load ptr, ptr %12, align 8
  %24 = call zeroext i16 @elem_tv(ptr noundef %19, ptr noundef %20, ptr noundef %21, i32 noundef 73, i32 noundef %22, ptr noundef @.str.282, ptr noundef %23)
  %25 = zext i16 %24 to i32
  store i32 %25, ptr %14, align 4
  %26 = icmp ugt i32 %25, 0
  br i1 %26, label %27, label %34

27:                                               ; preds = %6
  %28 = load i32, ptr %14, align 4
  %29 = load i32, ptr %13, align 4
  %30 = add i32 %29, %28
  store i32 %30, ptr %13, align 4
  %31 = load i32, ptr %14, align 4
  %32 = load i32, ptr %15, align 4
  %33 = sub i32 %32, %31
  store i32 %33, ptr %15, align 4
  br label %34

34:                                               ; preds = %27, %6
  %35 = load i32, ptr %15, align 4
  %36 = icmp ule i32 %35, 0
  br i1 %36, label %37, label %38

37:                                               ; preds = %34
  store i32 1, ptr %16, align 4
  br label %96

38:                                               ; preds = %34
  %39 = load ptr, ptr %7, align 8
  %40 = load ptr, ptr %8, align 8
  %41 = load ptr, ptr %9, align 8
  %42 = load i32, ptr %13, align 4
  %43 = load i32, ptr %15, align 4
  %44 = load ptr, ptr %12, align 8
  %45 = call zeroext i16 @elem_tlv(ptr noundef %39, ptr noundef %40, ptr noundef %41, i32 noundef 48, i32 noundef %42, i32 noundef %43, ptr noundef @.str.282, ptr noundef %44)
  %46 = zext i16 %45 to i32
  store i32 %46, ptr %14, align 4
  %47 = icmp ugt i32 %46, 0
  br i1 %47, label %48, label %55

48:                                               ; preds = %38
  %49 = load i32, ptr %14, align 4
  %50 = load i32, ptr %13, align 4
  %51 = add i32 %50, %49
  store i32 %51, ptr %13, align 4
  %52 = load i32, ptr %14, align 4
  %53 = load i32, ptr %15, align 4
  %54 = sub i32 %53, %52
  store i32 %54, ptr %15, align 4
  br label %55

55:                                               ; preds = %48, %38
  %56 = load i32, ptr %15, align 4
  %57 = icmp ule i32 %56, 0
  br i1 %57, label %58, label %59

58:                                               ; preds = %55
  store i32 1, ptr %16, align 4
  br label %96

59:                                               ; preds = %55
  %60 = load ptr, ptr %7, align 8
  %61 = load ptr, ptr %8, align 8
  %62 = load ptr, ptr %9, align 8
  %63 = load i32, ptr %13, align 4
  %64 = load i32, ptr %15, align 4
  %65 = load ptr, ptr %12, align 8
  %66 = call zeroext i16 @elem_tlv(ptr noundef %60, ptr noundef %61, ptr noundef %62, i32 noundef 68, i32 noundef %63, i32 noundef %64, ptr noundef @.str.282, ptr noundef %65)
  %67 = zext i16 %66 to i32
  store i32 %67, ptr %14, align 4
  %68 = icmp ugt i32 %67, 0
  br i1 %68, label %69, label %76

69:                                               ; preds = %59
  %70 = load i32, ptr %14, align 4
  %71 = load i32, ptr %13, align 4
  %72 = add i32 %71, %70
  store i32 %72, ptr %13, align 4
  %73 = load i32, ptr %14, align 4
  %74 = load i32, ptr %15, align 4
  %75 = sub i32 %74, %73
  store i32 %75, ptr %15, align 4
  br label %76

76:                                               ; preds = %69, %59
  %77 = load i32, ptr %15, align 4
  %78 = icmp ule i32 %77, 0
  br i1 %78, label %79, label %80

79:                                               ; preds = %76
  store i32 1, ptr %16, align 4
  br label %96

80:                                               ; preds = %76
  %81 = load i32, ptr %15, align 4
  %82 = icmp ugt i32 %81, 0
  br i1 %82, label %83, label %95

83:                                               ; preds = %80
  %84 = load ptr, ptr %9, align 8
  %85 = load ptr, ptr %8, align 8
  %86 = load ptr, ptr %7, align 8
  %87 = load i32, ptr %13, align 4
  %88 = load i32, ptr %15, align 4
  %89 = sub i32 %88, 0
  %90 = call ptr @proto_tree_add_expert(ptr noundef %84, ptr noundef %85, ptr noundef @ei_ansi_a_extraneous_data, ptr noundef %86, i32 noundef %87, i32 noundef %89)
  %91 = load i32, ptr %15, align 4
  %92 = sub i32 %91, 0
  %93 = load i32, ptr %13, align 4
  %94 = add i32 %93, %92
  store i32 %94, ptr %13, align 4
  br label %95

95:                                               ; preds = %83, %80
  store i32 0, ptr %16, align 4
  br label %96

96:                                               ; preds = %95, %79, %58, %37
  call void @llvm.lifetime.end.p0(i64 4, ptr %15) #8
  call void @llvm.lifetime.end.p0(i64 4, ptr %14) #8
  call void @llvm.lifetime.end.p0(i64 4, ptr %13) #8
  %97 = load i32, ptr %16, align 4
  switch i32 %97, label %99 [
    i32 0, label %98
    i32 1, label %98
  ]

98:                                               ; preds = %96, %96
  ret void

99:                                               ; preds = %96
  unreachable
}